; Function Attrs: mustprogress uwtable
define internal void @_ZN3gmx12_GLOBAL__N_120HelpExportCompletion16exportModuleHelpERKNS_18ICommandLineModuleERKNSt7__cxx1112basic_stringIcSt11char_traitsIcESaIcEEESC_(ptr noundef nonnull align 8 dereferenceable(40) %0, ptr noundef nonnull align 8 dereferenceable(8) %1, ptr nocapture nonnull readnone align 8 %2, ptr nocapture nonnull readnone align 8 %3) unnamed_addr #1 align 2 personality ptr @__gxx_personality_v0 {
  %5 = alloca ptr, align 8
  %6 = alloca %"class.gmx::CommandLineHelpContext", align 8
  %7 = alloca %"class.std::__cxx11::basic_string", align 8
  %8 = alloca %"class.std::allocator", align 1
  %9 = getelementptr inbounds i8, ptr %0, i64 16
  %10 = load ptr, ptr %1, align 8
  %11 = getelementptr inbounds i8, ptr %10, i64 16
  %12 = load ptr, ptr %11, align 8
  %13 = tail call noundef ptr %12(ptr noundef nonnull align 8 dereferenceable(8) %1)
  store ptr %13, ptr %5, align 8
  %14 = getelementptr inbounds i8, ptr %0, i64 24
  %15 = load ptr, ptr %14, align 8
  %16 = getelementptr inbounds i8, ptr %0, i64 32
  %17 = load ptr, ptr %16, align 8
  %.not.i = icmp eq ptr %15, %17
  br i1 %.not.i, label %21, label %18

18:                                               ; preds = %4
  call void @_ZNSt15__new_allocatorINSt7__cxx1112basic_stringIcSt11char_traitsIcESaIcEEEE9constructIS5_JPKcEEEvPT_DpOT0_(ptr noundef nonnull align 1 dereferenceable(1) %9, ptr noundef %15, ptr noundef nonnull align 8 dereferenceable(8) %5)
  %19 = load ptr, ptr %14, align 8
  %20 = getelementptr inbounds i8, ptr %19, i64 32
  store ptr %20, ptr %14, align 8
  br label %_ZNSt6vectorINSt7__cxx1112basic_stringIcSt11char_traitsIcESaIcEEESaIS5_EE12emplace_backIJPKcEEERS5_DpOT_.exit

21:                                               ; preds = %4
  call void @_ZNSt6vectorINSt7__cxx1112basic_stringIcSt11char_traitsIcESaIcEEESaIS5_EE17_M_realloc_insertIJPKcEEEvN9__gnu_cxx17__normal_iteratorIPS5_S7_EEDpOT_(ptr noundef nonnull align 8 dereferenceable(24) %9, ptr %15, ptr noundef nonnull align 8 dereferenceable(8) %5)
  br label %_ZNSt6vectorINSt7__cxx1112basic_stringIcSt11char_traitsIcESaIcEEESaIS5_EE12emplace_backIJPKcEEERS5_DpOT_.exit

_ZNSt6vectorINSt7__cxx1112basic_stringIcSt11char_traitsIcESaIcEEESaIS5_EE12emplace_backIJPKcEEERS5_DpOT_.exit: ; preds = %18, %21
  %22 = getelementptr inbounds i8, ptr %0, i64 8
  call void @_ZN3gmx22CommandLineHelpContextC1EPNS_21ShellCompletionWriterE(ptr noundef nonnull align 8 dereferenceable(8) %6, ptr noundef nonnull %22)
  %23 = load ptr, ptr %1, align 8
  %24 = getelementptr inbounds i8, ptr %23, i64 16
  %25 = load ptr, ptr %24, align 8
  %26 = invoke noundef ptr %25(ptr noundef nonnull align 8 dereferenceable(8) %1)
          to label %27 unwind label %42

27:                                               ; preds = %_ZNSt6vectorINSt7__cxx1112basic_stringIcSt11char_traitsIcESaIcEEESaIS5_EE12emplace_backIJPKcEEERS5_DpOT_.exit
  call void @_ZNSaIcEC1Ev(ptr noundef nonnull align 1 dereferenceable(1) %8) #19
  %28 = invoke noundef ptr @_ZNSt7__cxx1112basic_stringIcSt11char_traitsIcESaIcEE13_M_local_dataEv(ptr noundef nonnull align 8 dereferenceable(32) %7)
          to label %.noexc unwind label %44

.noexc:                                           ; preds = %27
  invoke void @_ZNSt7__cxx1112basic_stringIcSt11char_traitsIcESaIcEE12_Alloc_hiderC1EPcRKS3_(ptr noundef nonnull align 8 dereferenceable(8) %7, ptr noundef %28, ptr noundef nonnull align 1 dereferenceable(1) %8)
          to label %.noexc10 unwind label %44

.noexc10:                                         ; preds = %.noexc
  %29 = icmp eq ptr %26, null
  br i1 %29, label %30, label %34

30:                                               ; preds = %.noexc10
  invoke void @_ZSt19__throw_logic_errorPKc(ptr noundef nonnull @.str.13) #22
          to label %31 unwind label %32

31:                                               ; preds = %30
  unreachable

32:                                               ; preds = %34, %30
  %33 = landingpad { ptr, i32 }
          cleanup
  call void @_ZNSaIcED2Ev(ptr noundef nonnull align 1 dereferenceable(1) %7) #19
  br label %.body

34:                                               ; preds = %.noexc10
  %35 = call noundef i64 @strlen(ptr noundef nonnull dereferenceable(1) %26) #19
  %36 = getelementptr inbounds i8, ptr %26, i64 %35
  invoke void @_ZNSt7__cxx1112basic_stringIcSt11char_traitsIcESaIcEE12_M_constructIPKcEEvT_S8_St20forward_iterator_tag(ptr noundef nonnull align 8 dereferenceable(32) %7, ptr noundef nonnull %26, ptr noundef nonnull %36)
          to label %_ZNSt7__cxx1112basic_stringIcSt11char_traitsIcESaIcEEC2IS3_EEPKcRKS3_.exit unwind label %32

_ZNSt7__cxx1112basic_stringIcSt11char_traitsIcESaIcEEC2IS3_EEPKcRKS3_.exit: ; preds = %34
  invoke void @_ZN3gmx22CommandLineHelpContext20setModuleDisplayNameERKNSt7__cxx1112basic_stringIcSt11char_traitsIcESaIcEEE(ptr noundef nonnull align 8 dereferenceable(8) %6, ptr noundef nonnull align 8 dereferenceable(32) %7)
          to label %37 unwind label %46

37:                                               ; preds = %_ZNSt7__cxx1112basic_stringIcSt11char_traitsIcESaIcEEC2IS3_EEPKcRKS3_.exit
  call void @_ZNSt7__cxx1112basic_stringIcSt11char_traitsIcESaIcEED1Ev(ptr noundef nonnull align 8 dereferenceable(32) %7) #19
  call void @_ZNSaIcED1Ev(ptr noundef nonnull align 1 dereferenceable(1) %8) #19
  %38 = load ptr, ptr %1, align 8
  %39 = getelementptr inbounds i8, ptr %38, i64 48
  %40 = load ptr, ptr %39, align 8
  invoke void %40(ptr noundef nonnull align 8 dereferenceable(8) %1, ptr noundef nonnull align 8 dereferenceable(8) %6)
          to label %41 unwind label %42

41:                                               ; preds = %37
  call void @_ZN3gmx22CommandLineHelpContextD1Ev(ptr noundef nonnull align 8 dereferenceable(8) %6) #19
  ret void

42:                                               ; preds = %37, %_ZNSt6vectorINSt7__cxx1112basic_stringIcSt11char_traitsIcESaIcEEESaIS5_EE12emplace_backIJPKcEEERS5_DpOT_.exit
  %43 = landingpad { ptr, i32 }
          cleanup
  br label %48

44:                                               ; preds = %.noexc, %27
  %45 = landingpad { ptr, i32 }
          cleanup
  br label %.body

46:                                               ; preds = %_ZNSt7__cxx1112basic_stringIcSt11char_traitsIcESaIcEEC2IS3_EEPKcRKS3_.exit
  %47 = landingpad { ptr, i32 }
          cleanup
  call void @_ZNSt7__cxx1112basic_stringIcSt11char_traitsIcESaIcEED1Ev(ptr noundef nonnull align 8 dereferenceable(32) %7) #19
  br label %.body

.body:                                            ; preds = %44, %32, %46
  %.pn = phi { ptr, i32 } [ %47, %46 ], [ %45, %44 ], [ %33, %32 ]
  call void @_ZNSaIcED1Ev(ptr noundef nonnull align 1 dereferenceable(1) %8) #19
  br label %48

48:                                               ; preds = %.body, %42
  %.pn8 = phi { ptr, i32 } [ %43, %42 ], [ %.pn, %.body ]
  call void @_ZN3gmx22CommandLineHelpContextD1Ev(ptr noundef nonnull align 8 dereferenceable(8) %6) #19
  resume { ptr, i32 } %.pn8
}